target datalayout = "e-m:e-p270:32:32-p271:32:32-p272:64:64-i64:64-i128:128-f80:128-n8:16:32:64-S128"
target triple = "x86_64-pc-linux-gnu"

@.str.1 = private unnamed_addr constant [32 x i8] c"../openssl/crypto/pem/pem_lib.c\00", align 1
@__func__.PEM_read = private unnamed_addr constant [9 x i8] c"PEM_read\00", align 1

; Function Attrs: nounwind uwtable
define i32 @PEM_read_bio(ptr noundef %0, ptr noundef %1, ptr noundef %2, ptr noundef %3, ptr noundef %4) #0 {
  %6 = alloca ptr, align 8
  %7 = alloca ptr, align 8
  %8 = alloca ptr, align 8
  %9 = alloca ptr, align 8
  %10 = alloca ptr, align 8
  store ptr %0, ptr %6, align 8, !tbaa !18
  store ptr %1, ptr %7, align 8, !tbaa !20
  store ptr %2, ptr %8, align 8, !tbaa !20
  store ptr %3, ptr %9, align 8, !tbaa !20
  store ptr %4, ptr %10, align 8, !tbaa !22
  %11 = load ptr, ptr %6, align 8, !tbaa !18
  %12 = load ptr, ptr %7, align 8, !tbaa !20
  %13 = load ptr, ptr %8, align 8, !tbaa !20
  %14 = load ptr, ptr %9, align 8, !tbaa !20
  %15 = load ptr, ptr %10, align 8, !tbaa !22
  %16 = call i32 @PEM_read_bio_ex(ptr noundef %11, ptr noundef %12, ptr noundef %13, ptr noundef %14, ptr noundef %15, i32 noundef 2)
  ret i32 %16
}

; Function Attrs: nounwind uwtable
define i32 @PEM_read(ptr noundef %0, ptr noundef %1, ptr noundef %2, ptr noundef %3, ptr noundef %4) #0 {
  %6 = alloca i32, align 4
  %7 = alloca ptr, align 8
  %8 = alloca ptr, align 8
  %9 = alloca ptr, align 8
  %10 = alloca ptr, align 8
  %11 = alloca ptr, align 8
  %12 = alloca ptr, align 8
  %13 = alloca i32, align 4
  %14 = alloca i32, align 4
  store ptr %0, ptr %7, align 8, !tbaa !16
  store ptr %1, ptr %8, align 8, !tbaa !20
  store ptr %2, ptr %9, align 8, !tbaa !20
  store ptr %3, ptr %10, align 8, !tbaa !20
  store ptr %4, ptr %11, align 8, !tbaa !22
  call void @llvm.lifetime.start.p0(i64 8, ptr %12) #8
  call void @llvm.lifetime.start.p0(i64 4, ptr %13) #8
  %15 = call ptr @BIO_s_file()
  %16 = call ptr @BIO_new(ptr noundef %15)
  store ptr %16, ptr %12, align 8, !tbaa !18
  %17 = icmp eq ptr %16, null
  br i1 %17, label %18, label %19

18:                                               ; preds = %5
  call void @ERR_new()
  call void @ERR_set_debug(ptr noundef @.str.1, i32 noundef 714, ptr noundef @__func__.PEM_read)
  call void (i32, i32, ptr, ...) @ERR_set_error(i32 noundef 9, i32 noundef 524295, ptr noundef null)
  store i32 0, ptr %6, align 4
  store i32 1, ptr %14, align 4
  br label %32

19:                                               ; preds = %5
  %20 = load ptr, ptr %12, align 8, !tbaa !18
  %21 = load ptr, ptr %7, align 8, !tbaa !16
  %22 = call i64 @BIO_ctrl(ptr noundef %20, i32 noundef 106, i64 noundef 0, ptr noundef %21)
  %23 = load ptr, ptr %12, align 8, !tbaa !18
  %24 = load ptr, ptr %8, align 8, !tbaa !20
  %25 = load ptr, ptr %9, align 8, !tbaa !20
  %26 = load ptr, ptr %10, align 8, !tbaa !20
  %27 = load ptr, ptr %11, align 8, !tbaa !22
  %28 = call i32 @PEM_read_bio(ptr noundef %23, ptr noundef %24, ptr noundef %25, ptr noundef %26, ptr noundef %27)
  store i32 %28, ptr %13, align 4, !tbaa !8
  %29 = load ptr, ptr %12, align 8, !tbaa !18
  %30 = call i32 @BIO_free(ptr noundef %29)
  %31 = load i32, ptr %13, align 4, !tbaa !8
  store i32 %31, ptr %6, align 4
  store i32 1, ptr %14, align 4
  br label %32

32:                                               ; preds = %19, %18
  call void @llvm.lifetime.end.p0(i64 4, ptr %13) #8
  call void @llvm.lifetime.end.p0(i64 8, ptr %12) #8
  %33 = load i32, ptr %6, align 4
  ret i32 %33
}